target datalayout = "e-m:e-p270:32:32-p271:32:32-p272:64:64-i64:64-i128:128-f80:128-n8:16:32:64-S128"
target triple = "x86_64-pc-linux-gnu"

%struct._zval_struct = type { %union._zend_value, %union.anon, %union.anon.2 }
%union._zend_value = type { i64 }
%union.anon = type { i32 }
%union.anon.2 = type { i32 }
%struct._zend_array = type { %struct._zend_refcounted_h, %union.anon.4, i32, %union.anon.6, i32, i32, i32, i32, i64, ptr }
%struct._zend_refcounted_h = type { i32, %union.anon.3 }
%union.anon.3 = type { i32 }
%union.anon.4 = type { i32 }
%union.anon.6 = type { ptr }
%struct._zend_llist = type { ptr, ptr, i64, i64, ptr, i8, ptr }
%struct.stat = type { i64, i64, i64, i32, i32, i32, i32, i64, i64, i64, i64, %struct.timespec, %struct.timespec, %struct.timespec, [3 x i64] }
%struct.timespec = type { i64, i64 }
%struct._zend_cli_server_globals = type { i16 }
%struct._php_core_globals = type { i64, i8, i8, i8, i8, i8, i8, i8, i8, ptr, ptr, i64, i64, i64, ptr, ptr, ptr, ptr, ptr, i8, ptr, ptr, ptr, ptr, i64, ptr, ptr, ptr, ptr, ptr, ptr, ptr, %struct._arg_separators, ptr, %struct._zend_array, i16, i8, i8, %struct._zend_llist, [6 x %struct._zval_struct], i8, i8, i8, i8, i8, ptr, ptr, i64, [8 x i8], i8, i8, i8, i8, i8, i8, i32, i32, ptr, ptr, ptr, ptr, i64, i64, ptr, i64, ptr, ptr, i8, i8, i8, i8, i8, i8, i64, ptr, i64, i64 }
%struct._arg_separators = type { ptr, ptr }
%struct.php_cli_server_client = type { ptr, i32, ptr, i32, ptr, %struct.php_http_parser, i8, ptr, ptr, i32, i64, %struct.php_cli_server_request, i8, %struct.php_cli_server_content_sender, i32 }
%struct.php_http_parser = type { i8, i8, i8, i8, i32, i64, i16, i16, i16, i8, i8, ptr }
%struct.php_cli_server_request = type { i32, i32, ptr, ptr, i64, ptr, i64, ptr, i64, ptr, i64, %struct._zend_array, %struct._zend_array, ptr, i64, ptr, i64, %struct.stat }
%struct.php_cli_server_content_sender = type { %struct.php_cli_server_buffer }
%struct.php_cli_server_buffer = type { ptr, ptr }
%struct._zend_string = type { %struct._zend_refcounted_h, i64, i64, [1 x i8] }

@.str.13 = private unnamed_addr constant [1 x i8] zeroinitializer, align 1
@cli_server_globals = hidden global %struct._zend_cli_server_globals zeroinitializer, align 2
@core_globals = external global %struct._php_core_globals, align 8
@.str.2261 = private unnamed_addr constant [15 x i8] c"%s [%d]: %s %s\00", align 1
@.str.2262 = private unnamed_addr constant [6 x i8] c" - %s\00", align 1
@.str.2263 = private unnamed_addr constant [23 x i8] c" - %s in %s on line %d\00", align 1
@.str.2264 = private unnamed_addr constant [17 x i8] c"\1B[3%dm%s%s%s\1B[0m\00", align 1
@.str.2265 = private unnamed_addr constant [7 x i8] c"%s%s%s\00", align 1
@php_cli_output_is_tty = internal global i32 -1, align 4

; Function Attrs: nounwind uwtable
define internal i32 @php_cli_is_output_tty() #0 {
  %1 = load i32, ptr @php_cli_output_is_tty, align 4, !tbaa !117
  %2 = icmp eq i32 %1, -1
  br i1 %2, label %3, label %5

3:                                                ; preds = %0
  %4 = call i32 @isatty(i32 noundef 1) #20
  store i32 %4, ptr @php_cli_output_is_tty, align 4, !tbaa !117
  br label %5

5:                                                ; preds = %3, %0
  %6 = load i32, ptr @php_cli_output_is_tty, align 4, !tbaa !117
  ret i32 %6
}

; Function Attrs: nounwind uwtable
define internal void @php_cli_server_log_response(ptr noundef %0, i32 noundef %1, ptr noundef %2) #0 {
  %4 = alloca ptr, align 8
  %5 = alloca i32, align 4
  %6 = alloca ptr, align 8
  %7 = alloca i32, align 4
  %8 = alloca i32, align 4
  %9 = alloca ptr, align 8
  %10 = alloca ptr, align 8
  %11 = alloca ptr, align 8
  %12 = alloca i8, align 1
  %13 = alloca i32, align 4
  store ptr %0, ptr %4, align 8, !tbaa !60
  store i32 %1, ptr %5, align 4, !tbaa !117
  store ptr %2, ptr %6, align 8, !tbaa !67
  call void @llvm.lifetime.start.p0(i64 4, ptr %7) #20
  store i32 0, ptr %7, align 4, !tbaa !117
  call void @llvm.lifetime.start.p0(i64 4, ptr %8) #20
  %14 = load i32, ptr %5, align 4, !tbaa !117
  store i32 %14, ptr %8, align 4, !tbaa !117
  call void @llvm.lifetime.start.p0(i64 8, ptr %9) #20
  call void @llvm.lifetime.start.p0(i64 8, ptr %10) #20
  store ptr @.str.13, ptr %10, align 8, !tbaa !67
  call void @llvm.lifetime.start.p0(i64 8, ptr %11) #20
  store ptr @.str.13, ptr %11, align 8, !tbaa !67
  call void @llvm.lifetime.start.p0(i64 1, ptr %12) #20
  store i8 0, ptr %12, align 1, !tbaa !69
  %15 = load ptr, ptr getelementptr inbounds nuw (%struct._php_core_globals, ptr @core_globals, i32 0, i32 57), align 8, !tbaa !251
  %16 = icmp ne ptr %15, null
  br i1 %16, label %17, label %27

17:                                               ; preds = %3
  %18 = load i32, ptr getelementptr inbounds nuw (%struct._php_core_globals, ptr @core_globals, i32 0, i32 55), align 8, !tbaa !254
  %19 = and i32 %18, 4437
  %20 = icmp ne i32 %19, 0
  br i1 %20, label %21, label %26

21:                                               ; preds = %17
  %22 = load i32, ptr %5, align 4, !tbaa !117
  %23 = icmp eq i32 %22, 200
  br i1 %23, label %24, label %25

24:                                               ; preds = %21
  store i32 500, ptr %8, align 4, !tbaa !117
  br label %25

25:                                               ; preds = %24, %21
  store i8 1, ptr %12, align 1, !tbaa !69
  br label %26

26:                                               ; preds = %25, %17
  br label %27

27:                                               ; preds = %26, %3
  %28 = load i16, ptr @cli_server_globals, align 2, !tbaa !133
  %29 = sext i16 %28 to i32
  %30 = icmp ne i32 %29, 0
  br i1 %30, label %31, label %49

31:                                               ; preds = %27
  %32 = call i32 @php_cli_is_output_tty()
  %33 = icmp eq i32 %32, 1
  br i1 %33, label %34, label %49

34:                                               ; preds = %31
  %35 = load i32, ptr %8, align 4, !tbaa !117
  %36 = icmp sge i32 %35, 500
  br i1 %36, label %37, label %38

37:                                               ; preds = %34
  store i32 1, ptr %7, align 4, !tbaa !117
  br label %48

38:                                               ; preds = %34
  %39 = load i32, ptr %8, align 4, !tbaa !117
  %40 = icmp sge i32 %39, 400
  br i1 %40, label %41, label %42

41:                                               ; preds = %38
  store i32 3, ptr %7, align 4, !tbaa !117
  br label %47

42:                                               ; preds = %38
  %43 = load i32, ptr %8, align 4, !tbaa !117
  %44 = icmp sge i32 %43, 200
  br i1 %44, label %45, label %46

45:                                               ; preds = %42
  store i32 2, ptr %7, align 4, !tbaa !117
  br label %46

46:                                               ; preds = %45, %42
  br label %47

47:                                               ; preds = %46, %41
  br label %48

48:                                               ; preds = %47, %37
  br label %49

49:                                               ; preds = %48, %31, %27
  %50 = load ptr, ptr %4, align 8, !tbaa !60
  %51 = getelementptr inbounds nuw %struct.php_cli_server_client, ptr %50, i32 0, i32 4
  %52 = load ptr, ptr %51, align 8, !tbaa !103
  %53 = getelementptr inbounds nuw %struct._zend_string, ptr %52, i32 0, i32 3
  %54 = getelementptr inbounds [1 x i8], ptr %53, i64 0, i64 0
  %55 = load i32, ptr %5, align 4, !tbaa !117
  %56 = load ptr, ptr %4, align 8, !tbaa !60
  %57 = getelementptr inbounds nuw %struct.php_cli_server_client, ptr %56, i32 0, i32 11
  %58 = getelementptr inbounds nuw %struct.php_cli_server_request, ptr %57, i32 0, i32 0
  %59 = load i32, ptr %58, align 8, !tbaa !210
  %60 = call ptr @php_http_method_str(i32 noundef %59)
  %61 = load ptr, ptr %4, align 8, !tbaa !60
  %62 = getelementptr inbounds nuw %struct.php_cli_server_client, ptr %61, i32 0, i32 11
  %63 = getelementptr inbounds nuw %struct.php_cli_server_request, ptr %62, i32 0, i32 2
  %64 = load ptr, ptr %63, align 8, !tbaa !107
  %65 = getelementptr inbounds nuw %struct._zend_string, ptr %64, i32 0, i32 3
  %66 = getelementptr inbounds [1 x i8], ptr %65, i64 0, i64 0
  %67 = call i64 (ptr, i64, ptr, ...) @zend_spprintf(ptr noundef %9, i64 noundef 0, ptr noundef @.str.2261, ptr noundef %54, i32 noundef %55, ptr noundef %60, ptr noundef %66)
  %68 = load ptr, ptr %9, align 8, !tbaa !67
  %69 = icmp ne ptr %68, null
  br i1 %69, label %71, label %70

70:                                               ; preds = %49
  store i32 1, ptr %13, align 4
  br label %128

71:                                               ; preds = %49
  %72 = load ptr, ptr %6, align 8, !tbaa !67
  %73 = icmp ne ptr %72, null
  br i1 %73, label %74, label %82

74:                                               ; preds = %71
  %75 = load ptr, ptr %6, align 8, !tbaa !67
  %76 = call i64 (ptr, i64, ptr, ...) @zend_spprintf(ptr noundef %10, i64 noundef 0, ptr noundef @.str.2262, ptr noundef %75)
  %77 = load ptr, ptr %10, align 8, !tbaa !67
  %78 = icmp ne ptr %77, null
  br i1 %78, label %81, label %79

79:                                               ; preds = %74
  %80 = load ptr, ptr %9, align 8, !tbaa !67
  call void @_efree(ptr noundef %80)
  store i32 1, ptr %13, align 4
  br label %128

81:                                               ; preds = %74
  br label %82

82:                                               ; preds = %81, %71
  %83 = load i8, ptr %12, align 1, !tbaa !69, !range !70, !noundef !71
  %84 = trunc i8 %83 to i1
  br i1 %84, label %85, label %104

85:                                               ; preds = %82
  %86 = load ptr, ptr getelementptr inbounds nuw (%struct._php_core_globals, ptr @core_globals, i32 0, i32 57), align 8, !tbaa !251
  %87 = getelementptr inbounds nuw %struct._zend_string, ptr %86, i32 0, i32 3
  %88 = getelementptr inbounds [1 x i8], ptr %87, i64 0, i64 0
  %89 = load ptr, ptr getelementptr inbounds nuw (%struct._php_core_globals, ptr @core_globals, i32 0, i32 58), align 8, !tbaa !255
  %90 = getelementptr inbounds nuw %struct._zend_string, ptr %89, i32 0, i32 3
  %91 = getelementptr inbounds [1 x i8], ptr %90, i64 0, i64 0
  %92 = load i32, ptr getelementptr inbounds nuw (%struct._php_core_globals, ptr @core_globals, i32 0, i32 56), align 4, !tbaa !256
  %93 = call i64 (ptr, i64, ptr, ...) @zend_spprintf(ptr noundef %11, i64 noundef 0, ptr noundef @.str.2263, ptr noundef %88, ptr noundef %91, i32 noundef %92)
  %94 = load ptr, ptr %11, align 8, !tbaa !67
  %95 = icmp ne ptr %94, null
  br i1 %95, label %103, label %96

96:                                               ; preds = %85
  %97 = load ptr, ptr %9, align 8, !tbaa !67
  call void @_efree(ptr noundef %97)
  %98 = load ptr, ptr %6, align 8, !tbaa !67
  %99 = icmp ne ptr %98, null
  br i1 %99, label %100, label %102

100:                                              ; preds = %96
  %101 = load ptr, ptr %10, align 8, !tbaa !67
  call void @_efree(ptr noundef %101)
  br label %102

102:                                              ; preds = %100, %96
  store i32 1, ptr %13, align 4
  br label %128

103:                                              ; preds = %85
  br label %104

104:                                              ; preds = %103, %82
  %105 = load i32, ptr %7, align 4, !tbaa !117
  %106 = icmp ne i32 %105, 0
  br i1 %106, label %107, label %112

107:                                              ; preds = %104
  %108 = load i32, ptr %7, align 4, !tbaa !117
  %109 = load ptr, ptr %9, align 8, !tbaa !67
  %110 = load ptr, ptr %10, align 8, !tbaa !67
  %111 = load ptr, ptr %11, align 8, !tbaa !67
  call void (i32, ptr, ...) @php_cli_server_logf(i32 noundef 3, ptr noundef @.str.2264, i32 noundef %108, ptr noundef %109, ptr noundef %110, ptr noundef %111)
  br label %116

112:                                              ; preds = %104
  %113 = load ptr, ptr %9, align 8, !tbaa !67
  %114 = load ptr, ptr %10, align 8, !tbaa !67
  %115 = load ptr, ptr %11, align 8, !tbaa !67
  call void (i32, ptr, ...) @php_cli_server_logf(i32 noundef 3, ptr noundef @.str.2265, ptr noundef %113, ptr noundef %114, ptr noundef %115)
  br label %116

116:                                              ; preds = %112, %107
  %117 = load ptr, ptr %9, align 8, !tbaa !67
  call void @_efree(ptr noundef %117)
  %118 = load ptr, ptr %6, align 8, !tbaa !67
  %119 = icmp ne ptr %118, null
  br i1 %119, label %120, label %122

120:                                              ; preds = %116
  %121 = load ptr, ptr %10, align 8, !tbaa !67
  call void @_efree(ptr noundef %121)
  br label %122

122:                                              ; preds = %120, %116
  %123 = load i8, ptr %12, align 1, !tbaa !69, !range !70, !noundef !71
  %124 = trunc i8 %123 to i1
  br i1 %124, label %125, label %127

125:                                              ; preds = %122
  %126 = load ptr, ptr %11, align 8, !tbaa !67
  call void @_efree(ptr noundef %126)
  br label %127

127:                                              ; preds = %125, %122
  store i32 0, ptr %13, align 4
  br label %128

128:                                              ; preds = %127, %102, %79, %70
  call void @llvm.lifetime.end.p0(i64 1, ptr %12) #20
  call void @llvm.lifetime.end.p0(i64 8, ptr %11) #20
  call void @llvm.lifetime.end.p0(i64 8, ptr %10) #20
  call void @llvm.lifetime.end.p0(i64 8, ptr %9) #20
  call void @llvm.lifetime.end.p0(i64 4, ptr %8) #20
  call void @llvm.lifetime.end.p0(i64 4, ptr %7) #20
  %129 = load i32, ptr %13, align 4
  switch i32 %129, label %131 [
    i32 0, label %130
    i32 1, label %130
  ]

130:                                              ; preds = %128, %128
  ret void

131:                                              ; preds = %128
  unreachable
}