; Function Attrs: nounwind uwtable
define internal fastcc void @php_cli_server_log_response(ptr noundef readonly captures(none) %0, i32 noundef %1, ptr noundef %2) unnamed_addr #0 {
  %4 = alloca ptr, align 8
  %5 = alloca ptr, align 8
  %6 = alloca ptr, align 8
  call void @llvm.lifetime.start.p0(i64 8, ptr nonnull %4) #29
  call void @llvm.lifetime.start.p0(i64 8, ptr nonnull %5) #29
  store ptr @.str.13, ptr %5, align 8, !tbaa !117
  call void @llvm.lifetime.start.p0(i64 8, ptr nonnull %6) #29
  store ptr @.str.13, ptr %6, align 8, !tbaa !117
  %7 = load ptr, ptr getelementptr inbounds nuw (i8, ptr @core_globals, i64 496), align 8, !tbaa !219
  %.not = icmp eq ptr %7, null
  br i1 %.not, label %13, label %8

8:                                                ; preds = %3
  %9 = load i32, ptr getelementptr inbounds nuw (i8, ptr @core_globals, i64 488), align 8, !tbaa !220
  %10 = and i32 %9, 4437
  %.not20 = icmp eq i32 %10, 0
  br i1 %.not20, label %13, label %11

11:                                               ; preds = %8
  %12 = icmp eq i32 %1, 200
  %spec.select = select i1 %12, i32 500, i32 %1
  br label %13

13:                                               ; preds = %8, %11, %3
  %.016 = phi i32 [ %spec.select, %11 ], [ %1, %8 ], [ %1, %3 ]
  %.0 = phi i1 [ true, %11 ], [ false, %8 ], [ false, %3 ]
  %14 = load i16, ptr @cli_server_globals, align 2, !tbaa !146
  %.not21 = icmp eq i16 %14, 0
  br i1 %.not21, label %28, label %15

15:                                               ; preds = %13
  %16 = load i32, ptr @php_cli_output_is_tty, align 4, !tbaa !74
  %17 = icmp eq i32 %16, -1
  br i1 %17, label %18, label %php_cli_is_output_tty.exit

18:                                               ; preds = %15
  %19 = tail call i32 @isatty(i32 noundef 1) #29
  store i32 %19, ptr @php_cli_output_is_tty, align 4, !tbaa !74
  br label %php_cli_is_output_tty.exit

php_cli_is_output_tty.exit:                       ; preds = %15, %18
  %20 = phi i32 [ %19, %18 ], [ %16, %15 ]
  %21 = icmp eq i32 %20, 1
  br i1 %21, label %22, label %28

22:                                               ; preds = %php_cli_is_output_tty.exit
  %23 = icmp sgt i32 %.016, 499
  br i1 %23, label %28, label %24

24:                                               ; preds = %22
  %25 = icmp sgt i32 %.016, 399
  br i1 %25, label %28, label %26

26:                                               ; preds = %24
  %27 = icmp slt i32 %.016, 200
  %spec.select28 = select i1 %27, i32 0, i32 2
  br label %28

28:                                               ; preds = %26, %24, %22, %php_cli_is_output_tty.exit, %13
  %.not26 = phi i1 [ true, %php_cli_is_output_tty.exit ], [ true, %13 ], [ false, %22 ], [ false, %24 ], [ %27, %26 ]
  %.017 = phi i32 [ 0, %php_cli_is_output_tty.exit ], [ 0, %13 ], [ 1, %22 ], [ 3, %24 ], [ %spec.select28, %26 ]
  %29 = getelementptr inbounds nuw i8, ptr %0, i64 32
  %30 = load ptr, ptr %29, align 8, !tbaa !104
  %31 = getelementptr inbounds nuw i8, ptr %30, i64 24
  %32 = getelementptr inbounds nuw i8, ptr %0, i64 112
  %33 = load i32, ptr %32, align 8, !tbaa !174
  %34 = tail call ptr @php_http_method_str(i32 noundef %33) #29
  %35 = getelementptr inbounds nuw i8, ptr %0, i64 120
  %36 = load ptr, ptr %35, align 8, !tbaa !107
  %37 = getelementptr inbounds nuw i8, ptr %36, i64 24
  %38 = call i64 (ptr, i64, ptr, ...) @zend_spprintf(ptr noundef nonnull %4, i64 noundef 0, ptr noundef nonnull @.str.2261, ptr noundef nonnull %31, i32 noundef %1, ptr noundef %34, ptr noundef nonnull %37) #29
  %39 = load ptr, ptr %4, align 8, !tbaa !117
  %.not22 = icmp eq ptr %39, null
  br i1 %.not22, label %67, label %40

40:                                               ; preds = %28
  %.not23 = icmp eq ptr %2, null
  br i1 %.not23, label %44, label %41

41:                                               ; preds = %40
  %42 = call i64 (ptr, i64, ptr, ...) @zend_spprintf(ptr noundef nonnull %5, i64 noundef 0, ptr noundef nonnull @.str.2262, ptr noundef nonnull %2) #29
  %43 = load ptr, ptr %5, align 8, !tbaa !117
  %.not24 = icmp eq ptr %43, null
  br i1 %.not24, label %.sink.split, label %44

44:                                               ; preds = %41, %40
  br i1 %.0, label %45, label %55

45:                                               ; preds = %44
  %46 = load ptr, ptr getelementptr inbounds nuw (i8, ptr @core_globals, i64 496), align 8, !tbaa !219
  %47 = getelementptr inbounds nuw i8, ptr %46, i64 24
  %48 = load ptr, ptr getelementptr inbounds nuw (i8, ptr @core_globals, i64 504), align 8, !tbaa !221
  %49 = getelementptr inbounds nuw i8, ptr %48, i64 24
  %50 = load i32, ptr getelementptr inbounds nuw (i8, ptr @core_globals, i64 492), align 4, !tbaa !222
  %51 = call i64 (ptr, i64, ptr, ...) @zend_spprintf(ptr noundef nonnull %6, i64 noundef 0, ptr noundef nonnull @.str.2263, ptr noundef nonnull %47, ptr noundef nonnull %49, i32 noundef %50) #29
  %52 = load ptr, ptr %6, align 8, !tbaa !117
  %.not25 = icmp eq ptr %52, null
  br i1 %.not25, label %53, label %55

53:                                               ; preds = %45
  %54 = load ptr, ptr %4, align 8, !tbaa !117
  call void @_efree(ptr noundef %54) #29
  br i1 %.not23, label %67, label %.sink.split

55:                                               ; preds = %45, %44
  %56 = phi ptr [ %52, %45 ], [ @.str.13, %44 ]
  %57 = load ptr, ptr %4, align 8, !tbaa !117
  %58 = load ptr, ptr %5, align 8, !tbaa !117
  br i1 %.not26, label %60, label %59

59:                                               ; preds = %55
  call void (i32, ptr, ...) @php_cli_server_logf(i32 noundef 3, ptr noundef nonnull @.str.2264, i32 noundef %.017, ptr noundef %57, ptr noundef %58, ptr noundef nonnull %56)
  br label %61

60:                                               ; preds = %55
  call void (i32, ptr, ...) @php_cli_server_logf(i32 noundef 3, ptr noundef nonnull @.str.2265, ptr noundef %57, ptr noundef %58, ptr noundef nonnull %56)
  br label %61

61:                                               ; preds = %60, %59
  %62 = load ptr, ptr %4, align 8, !tbaa !117
  call void @_efree(ptr noundef %62) #29
  br i1 %.not23, label %65, label %63

63:                                               ; preds = %61
  %64 = load ptr, ptr %5, align 8, !tbaa !117
  call void @_efree(ptr noundef %64) #29
  br label %65

65:                                               ; preds = %63, %61
  br i1 %.0, label %.sink.split, label %67

.sink.split:                                      ; preds = %65, %53, %41
  %.sink29 = phi ptr [ %4, %41 ], [ %5, %53 ], [ %6, %65 ]
  %66 = load ptr, ptr %.sink29, align 8, !tbaa !117
  call void @_efree(ptr noundef %66) #29
  br label %67

67:                                               ; preds = %.sink.split, %65, %53, %28
  call void @llvm.lifetime.end.p0(i64 8, ptr nonnull %6) #29
  call void @llvm.lifetime.end.p0(i64 8, ptr nonnull %5) #29
  call void @llvm.lifetime.end.p0(i64 8, ptr nonnull %4) #29
  ret void
}